ARM GAS  C:\Users\POONAC~1\AppData\Local\Temp\ccIoGMiK.s 			page 1


   1              		.syntax unified
   2              		.cpu cortex-m3
   3              		.fpu softvfp
   4              		.eabi_attribute 20, 1
   5              		.eabi_attribute 21, 1
   6              		.eabi_attribute 23, 3
   7              		.eabi_attribute 24, 1
   8              		.eabi_attribute 25, 1
   9              		.eabi_attribute 26, 1
  10              		.eabi_attribute 30, 1
  11              		.eabi_attribute 34, 1
  12              		.eabi_attribute 18, 4
  13              		.thumb
  14              		.syntax unified
  15              		.file	"functions.c"
  16              		.text
  17              	.Ltext0:
  18              		.cfi_sections	.debug_frame
  19              		.section	.text.getString,"ax",%progbits
  20              		.align	2
  21              		.global	getString
  22              		.thumb
  23              		.thumb_func
  24              		.type	getString, %function
  25              	getString:
  26              	.LFB64:
  27              		.file 1 "functions.c"
   1:functions.c   **** /* ========================================
   2:functions.c   ****  *
   3:functions.c   ****  * Copyright YOUR COMPANY, THE YEAR
   4:functions.c   ****  * All Rights Reserved
   5:functions.c   ****  * UNPUBLISHED, LICENSED SOFTWARE.
   6:functions.c   ****  *
   7:functions.c   ****  * CONFIDENTIAL AND PROPRIETARY INFORMATION
   8:functions.c   ****  * WHICH IS THE PROPERTY OF your company.
   9:functions.c   ****  *
  10:functions.c   ****  * ========================================
  11:functions.c   **** */
  12:functions.c   **** #include "functions.h"
  13:functions.c   **** #include <project.h>
  14:functions.c   **** 
  15:functions.c   **** int getString(char *c)
  16:functions.c   **** {
  28              		.loc 1 16 0
  29              		.cfi_startproc
  30              		@ args = 0, pretend = 0, frame = 16
  31              		@ frame_needed = 0, uses_anonymous_args = 0
  32              	.LVL0:
  33 0000 30B5     		push	{r4, r5, lr}
  34              		.cfi_def_cfa_offset 12
  35              		.cfi_offset 4, -12
  36              		.cfi_offset 5, -8
  37              		.cfi_offset 14, -4
  38 0002 85B0     		sub	sp, sp, #20
  39              		.cfi_def_cfa_offset 32
  40 0004 0546     		mov	r5, r0
  41              	.LVL1:
ARM GAS  C:\Users\POONAC~1\AppData\Local\Temp\ccIoGMiK.s 			page 2


  17:functions.c   ****     int size=0;
  42              		.loc 1 17 0
  43 0006 0024     		movs	r4, #0
  44              	.LVL2:
  45              	.L6:
  18:functions.c   ****     int count=0;
  19:functions.c   ****     uint8_t buffer[10];
  20:functions.c   ****     do
  21:functions.c   ****     {
  22:functions.c   ****         if (0u != USBUART_IsConfigurationChanged())
  46              		.loc 1 22 0
  47 0008 FFF7FEFF 		bl	USBUART_IsConfigurationChanged
  48              	.LVL3:
  49 000c 20B1     		cbz	r0, .L2
  23:functions.c   ****         {
  24:functions.c   ****             /* Initialize IN endpoints when device is configured. */
  25:functions.c   ****             if (0u != USBUART_GetConfiguration())
  50              		.loc 1 25 0
  51 000e FFF7FEFF 		bl	USBUART_GetConfiguration
  52              	.LVL4:
  53 0012 08B1     		cbz	r0, .L2
  26:functions.c   ****             {
  27:functions.c   ****                 /* Enumeration is done, enable OUT endpoint to receive data 
  28:functions.c   ****                  * from host. */
  29:functions.c   ****                 USBUART_CDC_Init();
  54              		.loc 1 29 0
  55 0014 FFF7FEFF 		bl	USBUART_CDC_Init
  56              	.LVL5:
  57              	.L2:
  30:functions.c   ****             }
  31:functions.c   ****         }
  32:functions.c   ****         /* Service USB CDC when device is configured. */
  33:functions.c   ****         if (0u != USBUART_GetConfiguration())
  58              		.loc 1 33 0
  59 0018 FFF7FEFF 		bl	USBUART_GetConfiguration
  60              	.LVL6:
  61 001c 98B1     		cbz	r0, .L3
  34:functions.c   ****         {
  35:functions.c   ****             /* Check for input data from host. */
  36:functions.c   ****             if (0u != USBUART_DataIsReady())
  62              		.loc 1 36 0
  63 001e FFF7FEFF 		bl	USBUART_DataIsReady
  64              	.LVL7:
  65 0022 80B1     		cbz	r0, .L3
  37:functions.c   ****             {
  38:functions.c   ****                 /* Read received data and re-enable OUT endpoint. */
  39:functions.c   ****                 count = USBUART_GetAll(buffer);
  66              		.loc 1 39 0
  67 0024 01A8     		add	r0, sp, #4
  68 0026 FFF7FEFF 		bl	USBUART_GetAll
  69              	.LVL8:
  70 002a 0146     		mov	r1, r0
  71              	.LVL9:
  40:functions.c   **** 
  41:functions.c   ****                 if (0u != count)
  72              		.loc 1 41 0
  73 002c 40B9     		cbnz	r0, .L7
ARM GAS  C:\Users\POONAC~1\AppData\Local\Temp\ccIoGMiK.s 			page 3


  74              	.LBB2:
  75 002e 0AE0     		b	.L3
  76              	.LVL10:
  77              	.L5:
  42:functions.c   ****                 {
  43:functions.c   ****                     /* Wait until component is ready to send data to host. */
  44:functions.c   ****                     //while (0u == USBUART_CDCIsReady());
  45:functions.c   ****                     //LCD_ClearDisplay();
  46:functions.c   ****                     //LCD_Position(0,0);
  47:functions.c   ****                     for(int i=0;i<count;i++)
  48:functions.c   ****                     {
  49:functions.c   ****                         //LCD_PrintNumber(buffer[i]);
  50:functions.c   ****                         //LCD_PrintString(",");
  51:functions.c   ****                         c[size]=buffer[i];
  78              		.loc 1 51 0 discriminator 3
  79 0030 04AA     		add	r2, sp, #16
  80 0032 1A44     		add	r2, r2, r3
  81 0034 12F80C2C 		ldrb	r2, [r2, #-12]	@ zero_extendqisi2
  82 0038 2A55     		strb	r2, [r5, r4]
  52:functions.c   ****                         size++;
  83              		.loc 1 52 0 discriminator 3
  84 003a 0134     		adds	r4, r4, #1
  85              	.LVL11:
  47:functions.c   ****                     {
  86              		.loc 1 47 0 discriminator 3
  87 003c 0133     		adds	r3, r3, #1
  88              	.LVL12:
  89 003e 00E0     		b	.L4
  90              	.LVL13:
  91              	.L7:
  92              	.LBE2:
  93 0040 0023     		movs	r3, #0
  94              	.L4:
  95              	.LVL14:
  96              	.LBB3:
  47:functions.c   ****                     {
  97              		.loc 1 47 0 is_stmt 0 discriminator 1
  98 0042 8B42     		cmp	r3, r1
  99 0044 F4DB     		blt	.L5
 100              	.LVL15:
 101              	.L3:
 102              	.LBE3:
  53:functions.c   ****                     }
  54:functions.c   ****                     //LCD_PrintNumber(count);
  55:functions.c   ****                     //USBUART_PutData(buffer, count);
  56:functions.c   ****                 }
  57:functions.c   ****             }
  58:functions.c   ****         }
  59:functions.c   ****     }while(buffer[0]!=13);
 103              		.loc 1 59 0 is_stmt 1
 104 0046 9DF80430 		ldrb	r3, [sp, #4]	@ zero_extendqisi2
 105 004a 0D2B     		cmp	r3, #13
 106 004c DCD1     		bne	.L6
  60:functions.c   ****     return size;
  61:functions.c   **** }
 107              		.loc 1 61 0
 108 004e 2046     		mov	r0, r4
ARM GAS  C:\Users\POONAC~1\AppData\Local\Temp\ccIoGMiK.s 			page 4


 109 0050 05B0     		add	sp, sp, #20
 110              		.cfi_def_cfa_offset 12
 111              		@ sp needed
 112 0052 30BD     		pop	{r4, r5, pc}
 113              		.cfi_endproc
 114              	.LFE64:
 115              		.size	getString, .-getString
 116              		.text
 117              	.Letext0:
 118              		.file 2 "c:\\program files (x86)\\cypress\\psoc creator\\4.1\\psoc creator\\import\\gnu\\arm\\5.4.
 119              		.file 3 "c:\\program files (x86)\\cypress\\psoc creator\\4.1\\psoc creator\\import\\gnu\\arm\\5.4.
 120              		.file 4 "Generated_Source\\PSoC5/USBUART.h"
 121              		.file 5 "Generated_Source\\PSoC5/USBUART_cdc.h"
 122              		.file 6 "Generated_Source\\PSoC5/core_cm3.h"