ARM GAS  C:\Users\POONAC~1\AppData\Local\Temp\ccx7IcyJ.s 			page 1


   1              		.syntax unified
   2              		.cpu cortex-m3
   3              		.fpu softvfp
   4              		.eabi_attribute 20, 1
   5              		.eabi_attribute 21, 1
   6              		.eabi_attribute 23, 3
   7              		.eabi_attribute 24, 1
   8              		.eabi_attribute 25, 1
   9              		.eabi_attribute 26, 1
  10              		.eabi_attribute 30, 1
  11              		.eabi_attribute 34, 1
  12              		.eabi_attribute 18, 4
  13              		.thumb
  14              		.syntax unified
  15              		.file	"main.c"
  16              		.text
  17              	.Ltext0:
  18              		.cfi_sections	.debug_frame
  19              		.section	.text.InterruptHandler,"ax",%progbits
  20              		.align	2
  21              		.global	InterruptHandler
  22              		.thumb
  23              		.thumb_func
  24              		.type	InterruptHandler, %function
  25              	InterruptHandler:
  26              	.LFB64:
  27              		.file 1 "main.c"
   1:main.c        **** /* ========================================
   2:main.c        ****  *
   3:main.c        ****  * Copyright YOUR COMPANY, THE YEAR
   4:main.c        ****  * All Rights Reserved
   5:main.c        ****  * UNPUBLISHED, LICENSED SOFTWARE.
   6:main.c        ****  *
   7:main.c        ****  * CONFIDENTIAL AND PROPRIETARY INFORMATION
   8:main.c        ****  * WHICH IS THE PROPERTY OF your company.
   9:main.c        ****  *
  10:main.c        ****  * ========================================
  11:main.c        **** */
  12:main.c        **** #include <stdlib.h>
  13:main.c        **** #include "project.h"
  14:main.c        **** #include "functions.h"
  15:main.c        **** #define USBFS_DEVICE    (0u)
  16:main.c        **** int InterruptCnt;
  17:main.c        **** /*******************************************************************************
  18:main.c        **** * Define Interrupt service routine and allocate an vector to the Interrupt
  19:main.c        **** ********************************************************************************/
  20:main.c        **** typedef enum state {IDLE, COLLISION, BUSY_HIGH, BUSY_LOW} State;
  21:main.c        **** State cur_state = IDLE;
  22:main.c        **** int check_for_low = 0;
  23:main.c        **** 
  24:main.c        **** CY_ISR(InterruptHandler)
  25:main.c        **** {
  28              		.loc 1 25 0
  29              		.cfi_startproc
  30              		@ args = 0, pretend = 0, frame = 0
  31              		@ frame_needed = 0, uses_anonymous_args = 0
  32              		@ link register save eliminated.
ARM GAS  C:\Users\POONAC~1\AppData\Local\Temp\ccx7IcyJ.s 			page 2


  26:main.c        **** 	/* Read Status register in order to clear the sticky Terminal Count (TC) bit 
  27:main.c        **** 	 * in the status register. Note that the function is not called, but rather 
  28:main.c        **** 	 * the status is read directly.
  29:main.c        **** 	 */
  30:main.c        ****    	Timer_1_STATUS;
  33              		.loc 1 30 0
  34 0000 064B     		ldr	r3, .L4
  35 0002 1B78     		ldrb	r3, [r3]	@ zero_extendqisi2
  31:main.c        ****     
  32:main.c        ****     if (check_for_low == 0){
  36              		.loc 1 32 0
  37 0004 064B     		ldr	r3, .L4+4
  38 0006 1B68     		ldr	r3, [r3]
  39 0008 1BB9     		cbnz	r3, .L2
  33:main.c        ****         cur_state = IDLE;
  40              		.loc 1 33 0
  41 000a 0022     		movs	r2, #0
  42 000c 044B     		ldr	r3, .L4+4
  43 000e 1A71     		strb	r2, [r3, #4]
  44 0010 7047     		bx	lr
  45              	.L2:
  34:main.c        ****     } else {
  35:main.c        ****         cur_state = COLLISION;
  46              		.loc 1 35 0
  47 0012 0122     		movs	r2, #1
  48 0014 024B     		ldr	r3, .L4+4
  49 0016 1A71     		strb	r2, [r3, #4]
  50 0018 7047     		bx	lr
  51              	.L5:
  52 001a 00BF     		.align	2
  53              	.L4:
  54 001c 65650040 		.word	1073767781
  55 0020 00000000 		.word	.LANCHOR0
  56              		.cfi_endproc
  57              	.LFE64:
  58              		.size	InterruptHandler, .-InterruptHandler
  59              		.section	.text.rise,"ax",%progbits
  60              		.align	2
  61              		.global	rise
  62              		.thumb
  63              		.thumb_func
  64              		.type	rise, %function
  65              	rise:
  66              	.LFB65:
  36:main.c        ****     }
  37:main.c        **** }
  38:main.c        **** 
  39:main.c        **** CY_ISR(rise)
  40:main.c        **** {
  67              		.loc 1 40 0
  68              		.cfi_startproc
  69              		@ args = 0, pretend = 0, frame = 0
  70              		@ frame_needed = 0, uses_anonymous_args = 0
  71 0000 08B5     		push	{r3, lr}
  72              		.cfi_def_cfa_offset 8
  73              		.cfi_offset 3, -8
  74              		.cfi_offset 14, -4
ARM GAS  C:\Users\POONAC~1\AppData\Local\Temp\ccx7IcyJ.s 			page 3


  41:main.c        ****     if (check_for_low == 0){
  75              		.loc 1 41 0
  76 0002 084B     		ldr	r3, .L9
  77 0004 1B68     		ldr	r3, [r3]
  78 0006 63B9     		cbnz	r3, .L6
  42:main.c        ****         //Timer_1_WritePeriod(60);
  43:main.c        ****         //Timer_1_WriteCounter(59);
  44:main.c        ****         Timer_1_WritePeriod(52);
  79              		.loc 1 44 0
  80 0008 3420     		movs	r0, #52
  81 000a FFF7FEFF 		bl	Timer_1_WritePeriod
  82              	.LVL0:
  45:main.c        ****         Timer_1_WriteCounter(51);
  83              		.loc 1 45 0
  84 000e 3320     		movs	r0, #51
  85 0010 FFF7FEFF 		bl	Timer_1_WriteCounter
  86              	.LVL1:
  46:main.c        ****         Timer_1_Start();
  87              		.loc 1 46 0
  88 0014 FFF7FEFF 		bl	Timer_1_Start
  89              	.LVL2:
  47:main.c        ****         check_for_low = 1;
  90              		.loc 1 47 0
  91 0018 024B     		ldr	r3, .L9
  92 001a 0122     		movs	r2, #1
  93 001c 1A60     		str	r2, [r3]
  48:main.c        ****         cur_state = BUSY_HIGH;
  94              		.loc 1 48 0
  95 001e 0222     		movs	r2, #2
  96 0020 1A71     		strb	r2, [r3, #4]
  97              	.L6:
  98 0022 08BD     		pop	{r3, pc}
  99              	.L10:
 100              		.align	2
 101              	.L9:
 102 0024 00000000 		.word	.LANCHOR0
 103              		.cfi_endproc
 104              	.LFE65:
 105              		.size	rise, .-rise
 106              		.section	.text.fall,"ax",%progbits
 107              		.align	2
 108              		.global	fall
 109              		.thumb
 110              		.thumb_func
 111              		.type	fall, %function
 112              	fall:
 113              	.LFB66:
  49:main.c        ****     }
  50:main.c        **** }
  51:main.c        ****  
  52:main.c        **** CY_ISR(fall)
  53:main.c        **** {
 114              		.loc 1 53 0
 115              		.cfi_startproc
 116              		@ args = 0, pretend = 0, frame = 0
 117              		@ frame_needed = 0, uses_anonymous_args = 0
 118 0000 08B5     		push	{r3, lr}
ARM GAS  C:\Users\POONAC~1\AppData\Local\Temp\ccx7IcyJ.s 			page 4


 119              		.cfi_def_cfa_offset 8
 120              		.cfi_offset 3, -8
 121              		.cfi_offset 14, -4
  54:main.c        ****     if (check_for_low == 1){
 122              		.loc 1 54 0
 123 0002 0A4B     		ldr	r3, .L14
 124 0004 1B68     		ldr	r3, [r3]
 125 0006 012B     		cmp	r3, #1
 126 0008 0ED1     		bne	.L11
  55:main.c        ****         //Timer_1_WritePeriod(770);
  56:main.c        ****         //Timer_1_WriteCounter(769);
  57:main.c        ****         Timer_1_WritePeriod(830);
 127              		.loc 1 57 0
 128 000a 40F23E30 		movw	r0, #830
 129 000e FFF7FEFF 		bl	Timer_1_WritePeriod
 130              	.LVL3:
  58:main.c        ****         Timer_1_WriteCounter(829);
 131              		.loc 1 58 0
 132 0012 40F23D30 		movw	r0, #829
 133 0016 FFF7FEFF 		bl	Timer_1_WriteCounter
 134              	.LVL4:
  59:main.c        ****         Timer_1_Start();
 135              		.loc 1 59 0
 136 001a FFF7FEFF 		bl	Timer_1_Start
 137              	.LVL5:
  60:main.c        ****         check_for_low = 0;
 138              		.loc 1 60 0
 139 001e 034B     		ldr	r3, .L14
 140 0020 0022     		movs	r2, #0
 141 0022 1A60     		str	r2, [r3]
  61:main.c        ****         cur_state = BUSY_LOW;
 142              		.loc 1 61 0
 143 0024 0322     		movs	r2, #3
 144 0026 1A71     		strb	r2, [r3, #4]
 145              	.L11:
 146 0028 08BD     		pop	{r3, pc}
 147              	.L15:
 148 002a 00BF     		.align	2
 149              	.L14:
 150 002c 00000000 		.word	.LANCHOR0
 151              		.cfi_endproc
 152              	.LFE66:
 153              		.size	fall, .-fall
 154              		.section	.text.main,"ax",%progbits
 155              		.align	2
 156              		.global	main
 157              		.thumb
 158              		.thumb_func
 159              		.type	main, %function
 160              	main:
 161              	.LFB67:
  62:main.c        ****     }
  63:main.c        **** }
  64:main.c        **** 
  65:main.c        **** int main(void)
  66:main.c        **** {
 162              		.loc 1 66 0
ARM GAS  C:\Users\POONAC~1\AppData\Local\Temp\ccx7IcyJ.s 			page 5


 163              		.cfi_startproc
 164              		@ args = 0, pretend = 0, frame = 56
 165              		@ frame_needed = 0, uses_anonymous_args = 0
 166 0000 70B5     		push	{r4, r5, r6, lr}
 167              		.cfi_def_cfa_offset 16
 168              		.cfi_offset 4, -16
 169              		.cfi_offset 5, -12
 170              		.cfi_offset 6, -8
 171              		.cfi_offset 14, -4
 172 0002 8EB0     		sub	sp, sp, #56
 173              		.cfi_def_cfa_offset 72
  67:main.c        ****     CyGlobalIntEnable;
 174              		.loc 1 67 0
 175              		.syntax unified
 176              	@ 67 "main.c" 1
 177 0004 62B6     		CPSIE   i
 178              	@ 0 "" 2
  68:main.c        ****     TimerISR_StartEx(InterruptHandler);
 179              		.loc 1 68 0
 180              		.thumb
 181              		.syntax unified
 182 0006 5748     		ldr	r0, .L34
 183 0008 FFF7FEFF 		bl	TimerISR_StartEx
 184              	.LVL6:
  69:main.c        ****     InterruptCnt=0;
 185              		.loc 1 69 0
 186 000c 0024     		movs	r4, #0
 187 000e 564B     		ldr	r3, .L34+4
 188 0010 1C60     		str	r4, [r3]
  70:main.c        ****     LCD_Start();
 189              		.loc 1 70 0
 190 0012 FFF7FEFF 		bl	LCD_Start
 191              	.LVL7:
  71:main.c        ****     USBUART_Start(USBFS_DEVICE, USBUART_5V_OPERATION);
 192              		.loc 1 71 0
 193 0016 0121     		movs	r1, #1
 194 0018 2046     		mov	r0, r4
 195 001a FFF7FEFF 		bl	USBUART_Start
 196              	.LVL8:
  72:main.c        ****     
  73:main.c        ****     
  74:main.c        ****     
  75:main.c        ****     isr_1_StartEx(rise);
 197              		.loc 1 75 0
 198 001e 5348     		ldr	r0, .L34+8
 199 0020 FFF7FEFF 		bl	isr_1_StartEx
 200              	.LVL9:
  76:main.c        ****     isr_2_StartEx(fall);
 201              		.loc 1 76 0
 202 0024 5248     		ldr	r0, .L34+12
 203 0026 FFF7FEFF 		bl	isr_2_StartEx
 204              	.LVL10:
  77:main.c        **** 
  78:main.c        ****     uint16 delay = 500;
  79:main.c        ****     char input[44]; 
  80:main.c        ****     uint8 idx = 0;
  81:main.c        ****     char transmit;
ARM GAS  C:\Users\POONAC~1\AppData\Local\Temp\ccx7IcyJ.s 			page 6


  82:main.c        ****     NETWORK_OUT_Write(0);
 205              		.loc 1 82 0
 206 002a 2046     		mov	r0, r4
 207 002c FFF7FEFF 		bl	NETWORK_OUT_Write
 208              	.LVL11:
 209              	.L31:
  83:main.c        ****     uint8 no_collision = 1;
  84:main.c        ****     int8 transmission_complete = 0;
  85:main.c        ****     int size;
  86:main.c        ****     
  87:main.c        ****     for(;;)
  88:main.c        ****     {
  89:main.c        ****         LCD_ClearDisplay();
 210              		.loc 1 89 0
 211 0030 0120     		movs	r0, #1
 212 0032 FFF7FEFF 		bl	LCD_WriteControl
 213              	.LVL12:
  90:main.c        ****         LCD_Position(0,0);
 214              		.loc 1 90 0
 215 0036 0021     		movs	r1, #0
 216 0038 0846     		mov	r0, r1
 217 003a FFF7FEFF 		bl	LCD_Position
 218              	.LVL13:
  91:main.c        ****         LCD_PrintString(" READING STRING");
 219              		.loc 1 91 0
 220 003e 4D48     		ldr	r0, .L34+16
 221 0040 FFF7FEFF 		bl	LCD_PrintString
 222              	.LVL14:
  92:main.c        ****         
  93:main.c        ****         getString(input);
 223              		.loc 1 93 0
 224 0044 03A8     		add	r0, sp, #12
 225 0046 FFF7FEFF 		bl	getString
 226              	.LVL15:
 227              	.L17:
  94:main.c        **** 
  95:main.c        ****         transmission_complete=0;
  96:main.c        ****         idx=0;
  97:main.c        ****         
  98:main.c        ****         while(cur_state != IDLE);
 228              		.loc 1 98 0 discriminator 1
 229 004a 4B4B     		ldr	r3, .L34+20
 230 004c 1B79     		ldrb	r3, [r3, #4]	@ zero_extendqisi2
 231 004e 002B     		cmp	r3, #0
 232 0050 FBD1     		bne	.L17
 233 0052 0025     		movs	r5, #0
 234 0054 2E46     		mov	r6, r5
 235 0056 81E0     		b	.L19
 236              	.LVL16:
 237              	.L30:
  99:main.c        ****         while(!transmission_complete)
 100:main.c        ****         {
 101:main.c        ****             switch(cur_state)
 238              		.loc 1 101 0
 239 0058 474B     		ldr	r3, .L34+20
 240 005a 1B79     		ldrb	r3, [r3, #4]	@ zero_extendqisi2
 241 005c 032B     		cmp	r3, #3
ARM GAS  C:\Users\POONAC~1\AppData\Local\Temp\ccx7IcyJ.s 			page 7


 242 005e 7DD8     		bhi	.L19
 243 0060 DFE803F0 		tbb	[pc, r3]
 244              	.L21:
 245 0064 02       		.byte	(.L20-.L21)/2
 246 0065 54       		.byte	(.L22-.L21)/2
 247 0066 65       		.byte	(.L23-.L21)/2
 248 0067 70       		.byte	(.L24-.L21)/2
 249              		.p2align 1
 250              	.L20:
 251              	.LBB2:
 102:main.c        ****             {
 103:main.c        ****                 case IDLE :
 104:main.c        ****                     LCD_ClearDisplay();
 252              		.loc 1 104 0
 253 0068 0120     		movs	r0, #1
 254 006a FFF7FEFF 		bl	LCD_WriteControl
 255              	.LVL17:
 105:main.c        ****                     LCD_Position(0,0);
 256              		.loc 1 105 0
 257 006e 0021     		movs	r1, #0
 258 0070 0846     		mov	r0, r1
 259 0072 FFF7FEFF 		bl	LCD_Position
 260              	.LVL18:
 106:main.c        ****                     LCD_PrintString("IDLE, Transmitting: ");
 261              		.loc 1 106 0
 262 0076 4148     		ldr	r0, .L34+24
 263 0078 FFF7FEFF 		bl	LCD_PrintString
 264              	.LVL19:
 107:main.c        ****                     LCD_Position(1,0);
 265              		.loc 1 107 0
 266 007c 0021     		movs	r1, #0
 267 007e 0120     		movs	r0, #1
 268 0080 FFF7FEFF 		bl	LCD_Position
 269              	.LVL20:
 108:main.c        ****                     LCD_PrintString(input);
 270              		.loc 1 108 0
 271 0084 03AC     		add	r4, sp, #12
 272 0086 2046     		mov	r0, r4
 273 0088 FFF7FEFF 		bl	LCD_PrintString
 274              	.LVL21:
 109:main.c        ****                     LCD_PrintString("At: ");
 275              		.loc 1 109 0
 276 008c 3C48     		ldr	r0, .L34+28
 277 008e FFF7FEFF 		bl	LCD_PrintString
 278              	.LVL22:
 110:main.c        ****                     LCD_PrintNumber(idx);
 279              		.loc 1 110 0
 280 0092 3046     		mov	r0, r6
 281 0094 FFF7FEFF 		bl	LCD_PrintU32Number
 282              	.LVL23:
 111:main.c        ****                     
 112:main.c        ****                     if((transmit = * (input + idx)) != '\0')
 283              		.loc 1 112 0
 284 0098 A45D     		ldrb	r4, [r4, r6]	@ zero_extendqisi2
 285              	.LVL24:
 286 009a 002C     		cmp	r4, #0
 287 009c 5DD0     		beq	.L32
ARM GAS  C:\Users\POONAC~1\AppData\Local\Temp\ccx7IcyJ.s 			page 8


 288              	.LBB3:
 113:main.c        ****                     {
 114:main.c        ****                         NETWORK_OUT_Write(1);
 289              		.loc 1 114 0
 290 009e 0120     		movs	r0, #1
 291 00a0 FFF7FEFF 		bl	NETWORK_OUT_Write
 292              	.LVL25:
 115:main.c        ****                         CyDelayUs(delay);
 293              		.loc 1 115 0
 294 00a4 4FF4FA70 		mov	r0, #500
 295 00a8 FFF7FEFF 		bl	CyDelayUs
 296              	.LVL26:
 116:main.c        ****                         NETWORK_OUT_Write(0);
 297              		.loc 1 116 0
 298 00ac 0020     		movs	r0, #0
 299 00ae FFF7FEFF 		bl	NETWORK_OUT_Write
 300              	.LVL27:
 117:main.c        ****                         CyDelayUs(delay);
 301              		.loc 1 117 0
 302 00b2 4FF4FA70 		mov	r0, #500
 303 00b6 FFF7FEFF 		bl	CyDelayUs
 304              	.LVL28:
 118:main.c        ****                         
 119:main.c        ****                         char binary[8];
 120:main.c        ****                     
 121:main.c        ****                         // Convert to binary
 122:main.c        ****                         itoa(transmit, binary, 2);
 305              		.loc 1 122 0
 306 00ba 0222     		movs	r2, #2
 307 00bc 01A9     		add	r1, sp, #4
 308 00be 2046     		mov	r0, r4
 309 00c0 FFF7FEFF 		bl	itoa
 310              	.LVL29:
 311              	.LBB4:
 123:main.c        ****                         for (int i = 0; i < 7; ++i)
 312              		.loc 1 123 0
 313 00c4 0024     		movs	r4, #0
 314              	.LVL30:
 315 00c6 1CE0     		b	.L26
 316              	.LVL31:
 317              	.L29:
 124:main.c        ****                         {
 125:main.c        ****                             if (binary[i] == '0')
 318              		.loc 1 125 0
 319 00c8 0EAB     		add	r3, sp, #56
 320 00ca 2344     		add	r3, r3, r4
 321 00cc 13F8343C 		ldrb	r3, [r3, #-52]	@ zero_extendqisi2
 322 00d0 302B     		cmp	r3, #48
 323 00d2 07D1     		bne	.L27
 126:main.c        ****                             {
 127:main.c        ****                                 NETWORK_OUT_Write(0);
 324              		.loc 1 127 0
 325 00d4 0020     		movs	r0, #0
 326 00d6 FFF7FEFF 		bl	NETWORK_OUT_Write
 327              	.LVL32:
 128:main.c        ****                                 CyDelayUs(delay * 2);
 328              		.loc 1 128 0
ARM GAS  C:\Users\POONAC~1\AppData\Local\Temp\ccx7IcyJ.s 			page 9


 329 00da 4FF47A70 		mov	r0, #1000
 330 00de FFF7FEFF 		bl	CyDelayUs
 331              	.LVL33:
 332 00e2 0DE0     		b	.L28
 333              	.L27:
 129:main.c        ****                             }
 130:main.c        ****                             else
 131:main.c        ****                             {
 132:main.c        ****                                 NETWORK_OUT_Write(1);
 334              		.loc 1 132 0
 335 00e4 0120     		movs	r0, #1
 336 00e6 FFF7FEFF 		bl	NETWORK_OUT_Write
 337              	.LVL34:
 133:main.c        ****                                 CyDelayUs(delay);
 338              		.loc 1 133 0
 339 00ea 4FF4FA70 		mov	r0, #500
 340 00ee FFF7FEFF 		bl	CyDelayUs
 341              	.LVL35:
 134:main.c        ****                                 NETWORK_OUT_Write(0);
 342              		.loc 1 134 0
 343 00f2 0020     		movs	r0, #0
 344 00f4 FFF7FEFF 		bl	NETWORK_OUT_Write
 345              	.LVL36:
 135:main.c        ****                                 CyDelayUs(delay);
 346              		.loc 1 135 0
 347 00f8 4FF4FA70 		mov	r0, #500
 348 00fc FFF7FEFF 		bl	CyDelayUs
 349              	.LVL37:
 350              	.L28:
 123:main.c        ****                         {
 351              		.loc 1 123 0 discriminator 2
 352 0100 0134     		adds	r4, r4, #1
 353              	.LVL38:
 354              	.L26:
 123:main.c        ****                         {
 355              		.loc 1 123 0 is_stmt 0 discriminator 1
 356 0102 062C     		cmp	r4, #6
 357 0104 E0DD     		ble	.L29
 358              	.LBE4:
 136:main.c        ****                             }
 137:main.c        ****                         }
 138:main.c        ****                         ++idx;
 359              		.loc 1 138 0 is_stmt 1
 360 0106 0136     		adds	r6, r6, #1
 361              	.LVL39:
 362 0108 F6B2     		uxtb	r6, r6
 363              	.LVL40:
 364              	.LBE3:
 365 010a 27E0     		b	.L19
 366              	.LVL41:
 367              	.L22:
 139:main.c        ****                     }
 140:main.c        ****                     else
 141:main.c        ****                     {
 142:main.c        ****                         transmission_complete=1;
 143:main.c        ****                     }
 144:main.c        ****                 break;
ARM GAS  C:\Users\POONAC~1\AppData\Local\Temp\ccx7IcyJ.s 			page 10


 145:main.c        **** 
 146:main.c        ****                 case COLLISION:
 147:main.c        ****                     
 148:main.c        ****                     LCD_ClearDisplay();
 368              		.loc 1 148 0
 369 010c 0120     		movs	r0, #1
 370 010e FFF7FEFF 		bl	LCD_WriteControl
 371              	.LVL42:
 149:main.c        ****                     LCD_Position(0,0);
 372              		.loc 1 149 0
 373 0112 0021     		movs	r1, #0
 374 0114 0846     		mov	r0, r1
 375 0116 FFF7FEFF 		bl	LCD_Position
 376              	.LVL43:
 150:main.c        ****                     LCD_PrintString(" COLLISION ");
 377              		.loc 1 150 0
 378 011a 1A48     		ldr	r0, .L34+32
 379 011c FFF7FEFF 		bl	LCD_PrintString
 380              	.LVL44:
 151:main.c        ****                     
 152:main.c        ****                     idx=0;
 153:main.c        ****                     NETWORK_OUT_Write(0);
 381              		.loc 1 153 0
 382 0120 0020     		movs	r0, #0
 383 0122 FFF7FEFF 		bl	NETWORK_OUT_Write
 384              	.LVL45:
 154:main.c        ****                 
 155:main.c        ****                     uint32 delay = rand() % 129;
 385              		.loc 1 155 0
 386 0126 FFF7FEFF 		bl	rand
 387              	.LVL46:
 152:main.c        ****                     NETWORK_OUT_Write(0);
 388              		.loc 1 152 0
 389 012a 0026     		movs	r6, #0
 156:main.c        ****                     //CyDelay((uint32) (((delay)/128) * 1000));
 157:main.c        ****                 break;
 390              		.loc 1 157 0
 391 012c 16E0     		b	.L19
 392              	.LVL47:
 393              	.L23:
 158:main.c        ****                     
 159:main.c        ****                 case BUSY_HIGH:
 160:main.c        ****                     LCD_ClearDisplay();
 394              		.loc 1 160 0
 395 012e 0120     		movs	r0, #1
 396 0130 FFF7FEFF 		bl	LCD_WriteControl
 397              	.LVL48:
 161:main.c        ****                     LCD_Position(0,0);
 398              		.loc 1 161 0
 399 0134 0021     		movs	r1, #0
 400 0136 0846     		mov	r0, r1
 401 0138 FFF7FEFF 		bl	LCD_Position
 402              	.LVL49:
 162:main.c        ****                     LCD_PrintString(" BUSY_LOW ");
 403              		.loc 1 162 0
 404 013c 1248     		ldr	r0, .L34+36
 405 013e FFF7FEFF 		bl	LCD_PrintString
ARM GAS  C:\Users\POONAC~1\AppData\Local\Temp\ccx7IcyJ.s 			page 11


 406              	.LVL50:
 163:main.c        ****                 break;
 407              		.loc 1 163 0
 408 0142 0BE0     		b	.L19
 409              	.L24:
 164:main.c        ****                     
 165:main.c        ****                 case BUSY_LOW:
 166:main.c        ****                     LCD_ClearDisplay();
 410              		.loc 1 166 0
 411 0144 0120     		movs	r0, #1
 412 0146 FFF7FEFF 		bl	LCD_WriteControl
 413              	.LVL51:
 167:main.c        ****                     LCD_Position(0,0);
 414              		.loc 1 167 0
 415 014a 0021     		movs	r1, #0
 416 014c 0846     		mov	r0, r1
 417 014e FFF7FEFF 		bl	LCD_Position
 418              	.LVL52:
 168:main.c        ****                     LCD_PrintString(" BUSY_HIGH ");
 419              		.loc 1 168 0
 420 0152 0E48     		ldr	r0, .L34+40
 421 0154 FFF7FEFF 		bl	LCD_PrintString
 422              	.LVL53:
 169:main.c        ****                 break;
 423              		.loc 1 169 0
 424 0158 00E0     		b	.L19
 425              	.LVL54:
 426              	.L32:
 142:main.c        ****                     }
 427              		.loc 1 142 0
 428 015a 0125     		movs	r5, #1
 429              	.LVL55:
 430              	.L19:
 431              	.LBE2:
  99:main.c        ****         {
 432              		.loc 1 99 0
 433 015c 002D     		cmp	r5, #0
 434 015e 3FF47BAF 		beq	.L30
 435 0162 65E7     		b	.L31
 436              	.L35:
 437              		.align	2
 438              	.L34:
 439 0164 00000000 		.word	InterruptHandler
 440 0168 00000000 		.word	InterruptCnt
 441 016c 00000000 		.word	rise
 442 0170 00000000 		.word	fall
 443 0174 00000000 		.word	.LC0
 444 0178 00000000 		.word	.LANCHOR0
 445 017c 10000000 		.word	.LC1
 446 0180 28000000 		.word	.LC2
 447 0184 30000000 		.word	.LC3
 448 0188 3C000000 		.word	.LC4
 449 018c 48000000 		.word	.LC5
 450              		.cfi_endproc
 451              	.LFE67:
 452              		.size	main, .-main
 453              		.global	check_for_low
ARM GAS  C:\Users\POONAC~1\AppData\Local\Temp\ccx7IcyJ.s 			page 12


 454              		.global	cur_state
 455              		.comm	InterruptCnt,4,4
 456              		.section	.rodata.str1.4,"aMS",%progbits,1
 457              		.align	2
 458              	.LC0:
 459 0000 20524541 		.ascii	" READING STRING\000"
 459      44494E47 
 459      20535452 
 459      494E4700 
 460              	.LC1:
 461 0010 49444C45 		.ascii	"IDLE, Transmitting: \000"
 461      2C205472 
 461      616E736D 
 461      69747469 
 461      6E673A20 
 462 0025 000000   		.space	3
 463              	.LC2:
 464 0028 41743A20 		.ascii	"At: \000"
 464      00
 465 002d 000000   		.space	3
 466              	.LC3:
 467 0030 20434F4C 		.ascii	" COLLISION \000"
 467      4C495349 
 467      4F4E2000 
 468              	.LC4:
 469 003c 20425553 		.ascii	" BUSY_LOW \000"
 469      595F4C4F 
 469      572000
 470 0047 00       		.space	1
 471              	.LC5:
 472 0048 20425553 		.ascii	" BUSY_HIGH \000"
 472      595F4849 
 472      47482000 
 473              		.bss
 474              		.align	2
 475              		.set	.LANCHOR0,. + 0
 476              		.type	check_for_low, %object
 477              		.size	check_for_low, 4
 478              	check_for_low:
 479 0000 00000000 		.space	4
 480              		.type	cur_state, %object
 481              		.size	cur_state, 1
 482              	cur_state:
 483 0004 00       		.space	1
 484              		.text
 485              	.Letext0:
 486              		.file 2 "c:\\program files (x86)\\cypress\\psoc creator\\4.1\\psoc creator\\import\\gnu\\arm\\5.4.
 487              		.file 3 "c:\\program files (x86)\\cypress\\psoc creator\\4.1\\psoc creator\\import\\gnu\\arm\\5.4.
 488              		.file 4 "Generated_Source\\PSoC5/cytypes.h"
 489              		.file 5 "Generated_Source\\PSoC5/core_cm3.h"
 490              		.file 6 "Generated_Source\\PSoC5/Timer_1.h"
 491              		.file 7 "Generated_Source\\PSoC5/NETWORK_OUT.h"
 492              		.file 8 "Generated_Source\\PSoC5/CyLib.h"
 493              		.file 9 "c:\\program files (x86)\\cypress\\psoc creator\\4.1\\psoc creator\\import\\gnu\\arm\\5.4.
 494              		.file 10 "Generated_Source\\PSoC5/LCD.h"
 495              		.file 11 "Generated_Source\\PSoC5/TimerISR.h"
 496              		.file 12 "Generated_Source\\PSoC5/USBUART.h"
ARM GAS  C:\Users\POONAC~1\AppData\Local\Temp\ccx7IcyJ.s 			page 13


 497              		.file 13 "Generated_Source\\PSoC5/isr_1.h"
 498              		.file 14 "Generated_Source\\PSoC5/isr_2.h"
 499              		.file 15 "functions.h"